ARM GAS  C:\Users\gding\AppData\Local\Temp\ccXruLX8.s 			page 1


   1              		.syntax unified
   2              		.cpu cortex-m3
   3              		.fpu softvfp
   4              		.eabi_attribute 20, 1
   5              		.eabi_attribute 21, 1
   6              		.eabi_attribute 23, 3
   7              		.eabi_attribute 24, 1
   8              		.eabi_attribute 25, 1
   9              		.eabi_attribute 26, 1
  10              		.eabi_attribute 30, 1
  11              		.eabi_attribute 34, 1
  12              		.eabi_attribute 18, 4
  13              		.thumb
  14              		.file	"functions.c"
  15              		.text
  16              	.Ltext0:
  17              		.cfi_sections	.debug_frame
  18              		.section	.text.Initialize_SD_Card,"ax",%progbits
  19              		.align	2
  20              		.global	Initialize_SD_Card
  21              		.thumb
  22              		.thumb_func
  23              		.type	Initialize_SD_Card, %function
  24              	Initialize_SD_Card:
  25              	.LFB63:
  26              		.file 1 "functions.c"
   1:functions.c   **** /* ========================================
   2:functions.c   ****  *
   3:functions.c   ****  * Copyright YOUR COMPANY, THE YEAR
   4:functions.c   ****  * All Rights Reserved
   5:functions.c   ****  * UNPUBLISHED, LICENSED SOFTWARE.
   6:functions.c   ****  *
   7:functions.c   ****  * CONFIDENTIAL AND PROPRIETARY INFORMATION
   8:functions.c   ****  * WHICH IS THE PROPERTY OF your company.
   9:functions.c   ****  *
  10:functions.c   ****  * ========================================
  11:functions.c   **** */
  12:functions.c   **** /* Source file for helper functions, make main a little shorter*/
  13:functions.c   **** 
  14:functions.c   **** #include "functions.h"
  15:functions.c   **** 
  16:functions.c   **** int Initialize_SD_Card(char *filename, char *volname, FS_FILE *file){
  27              		.loc 1 16 0
  28              		.cfi_startproc
  29              		@ args = 0, pretend = 0, frame = 0
  30              		@ frame_needed = 0, uses_anonymous_args = 0
  31              	.LVL0:
  32 0000 38B5     		push	{r3, r4, r5, lr}
  33              		.cfi_def_cfa_offset 16
  34              		.cfi_offset 3, -16
  35              		.cfi_offset 4, -12
  36              		.cfi_offset 5, -8
  37              		.cfi_offset 14, -4
  38 0002 0546     		mov	r5, r0
  39 0004 0C46     		mov	r4, r1
  17:functions.c   ****     FS_Init();
  40              		.loc 1 17 0
ARM GAS  C:\Users\gding\AppData\Local\Temp\ccXruLX8.s 			page 2


  41 0006 FFF7FEFF 		bl	FS_Init
  42              	.LVL1:
  18:functions.c   ****     FS_Mount(volname);
  43              		.loc 1 18 0
  44 000a 2046     		mov	r0, r4
  45 000c FFF7FEFF 		bl	FS_Mount
  46              	.LVL2:
  19:functions.c   ****     if(0 != FS_GetVolumeName(0u, volname, 9u))
  47              		.loc 1 19 0
  48 0010 0020     		movs	r0, #0
  49 0012 2146     		mov	r1, r4
  50 0014 0922     		movs	r2, #9
  51 0016 FFF7FEFF 		bl	FS_GetVolumeName
  52              	.LVL3:
  53 001a E8B3     		cbz	r0, .L3
  20:functions.c   ****     {
  21:functions.c   ****         /* Getting volume name succeeded so prompt it on the LCD */
  22:functions.c   ****         LED4_Write(1);
  54              		.loc 1 22 0
  55 001c 0120     		movs	r0, #1
  56 001e FFF7FEFF 		bl	LED4_Write
  57              	.LVL4:
  23:functions.c   ****         CyDelay(500u);
  58              		.loc 1 23 0
  59 0022 4FF4FA70 		mov	r0, #500
  60 0026 FFF7FEFF 		bl	CyDelay
  61              	.LVL5:
  24:functions.c   ****     }
  25:functions.c   ****     else
  26:functions.c   ****         return 1;   
  27:functions.c   ****     
  28:functions.c   ****     CyDelay(500u);
  62              		.loc 1 28 0
  63 002a 4FF4FA70 		mov	r0, #500
  64 002e FFF7FEFF 		bl	CyDelay
  65              	.LVL6:
  29:functions.c   ****     LED4_Write(0);
  66              		.loc 1 29 0
  67 0032 0020     		movs	r0, #0
  68 0034 FFF7FEFF 		bl	LED4_Write
  69              	.LVL7:
  30:functions.c   **** //    setCursor(0u, 0u);
  31:functions.c   **** //    LCD_print("SD card format");
  32:functions.c   ****     
  33:functions.c   ****     if(0 == FS_FormatSD(volname))
  70              		.loc 1 33 0
  71 0038 2046     		mov	r0, r4
  72 003a FFF7FEFF 		bl	FS_FormatSD
  73              	.LVL8:
  74 003e 0446     		mov	r4, r0
  75              	.LVL9:
  76 0040 60BB     		cbnz	r0, .L4
  34:functions.c   ****     {
  35:functions.c   ****         LED4_Write(1);
  77              		.loc 1 35 0
  78 0042 0120     		movs	r0, #1
  79 0044 FFF7FEFF 		bl	LED4_Write
ARM GAS  C:\Users\gding\AppData\Local\Temp\ccXruLX8.s 			page 3


  80              	.LVL10:
  36:functions.c   **** //        setCursor(1u, 0u);
  37:functions.c   **** //        LCD_print("Succeeded");
  38:functions.c   ****     }
  39:functions.c   ****     else
  40:functions.c   ****     {
  41:functions.c   **** //        setCursor(1u, 0u);
  42:functions.c   **** //        LCD_print("Failed");
  43:functions.c   ****         return 1;
  44:functions.c   ****     }
  45:functions.c   ****     CyDelay(500u);
  81              		.loc 1 45 0
  82 0048 4FF4FA70 		mov	r0, #500
  83 004c FFF7FEFF 		bl	CyDelay
  84              	.LVL11:
  46:functions.c   ****     LED4_Write(0);
  85              		.loc 1 46 0
  86 0050 0020     		movs	r0, #0
  87 0052 FFF7FEFF 		bl	LED4_Write
  88              	.LVL12:
  47:functions.c   ****     file = FS_FOpen(filename, "w");
  89              		.loc 1 47 0
  90 0056 2846     		mov	r0, r5
  91 0058 1449     		ldr	r1, .L8
  92 005a FFF7FEFF 		bl	FS_FOpen
  93              	.LVL13:
  48:functions.c   ****     if(file)
  94              		.loc 1 48 0
  95 005e 0546     		mov	r5, r0
  96              	.LVL14:
  97 0060 F0B1     		cbz	r0, .L5
  49:functions.c   ****     {
  50:functions.c   ****         /* Indicate successful file creation message */
  51:functions.c   **** //        LCD_print("File ");
  52:functions.c   **** //        LCD_print(filename);
  53:functions.c   **** //        setCursor(1u, 0u);
  54:functions.c   **** //        LCD_print("was opened");
  55:functions.c   ****         LED6_Write(1);
  98              		.loc 1 55 0
  99 0062 0120     		movs	r0, #1
 100              	.LVL15:
 101 0064 FFF7FEFF 		bl	LED6_Write
 102              	.LVL16:
  56:functions.c   ****         /* Need some delay to indicate output on the LCD */
  57:functions.c   ****         CyDelay(1000u);
 103              		.loc 1 57 0
 104 0068 4FF47A70 		mov	r0, #1000
 105 006c FFF7FEFF 		bl	CyDelay
 106              	.LVL17:
  58:functions.c   ****         LED6_Write(0);
 107              		.loc 1 58 0
 108 0070 0020     		movs	r0, #0
 109 0072 FFF7FEFF 		bl	LED6_Write
 110              	.LVL18:
  59:functions.c   **** //        clear();
  60:functions.c   ****         
  61:functions.c   **** //        setCursor(0u, 0u);
ARM GAS  C:\Users\gding\AppData\Local\Temp\ccXruLX8.s 			page 4


  62:functions.c   ****         
  63:functions.c   ****         if(0 != FS_Write(file, "Testing Testing\nTesting Testing", 31u)) 
 111              		.loc 1 63 0
 112 0076 2846     		mov	r0, r5
 113 0078 0D49     		ldr	r1, .L8+4
 114 007a 1F22     		movs	r2, #31
 115 007c FFF7FEFF 		bl	FS_Write
 116              	.LVL19:
 117 0080 80B1     		cbz	r0, .L6
  64:functions.c   ****         {
  65:functions.c   ****             /* Inditate that data was written to a file */
  66:functions.c   **** //            LCD_print("\"0123456789\"");
  67:functions.c   **** //            LCD_print(filename);
  68:functions.c   **** //            setCursor(1u, 0u);
  69:functions.c   **** //            LCD_print("written to file");
  70:functions.c   ****             LED7_Write(1);
 118              		.loc 1 70 0
 119 0082 0120     		movs	r0, #1
 120 0084 FFF7FEFF 		bl	LED7_Write
 121              	.LVL20:
  71:functions.c   ****             CyDelay(1000u);
 122              		.loc 1 71 0
 123 0088 4FF47A70 		mov	r0, #1000
 124 008c FFF7FEFF 		bl	CyDelay
 125              	.LVL21:
  72:functions.c   ****             LED7_Write(0);
 126              		.loc 1 72 0
 127 0090 0020     		movs	r0, #0
 128 0092 FFF7FEFF 		bl	LED7_Write
 129              	.LVL22:
  73:functions.c   ****         }
  74:functions.c   ****         else
  75:functions.c   ****         {
  76:functions.c   **** //            LCD_print("Failed to write");
  77:functions.c   **** //            setCursor(1u, 0u);
  78:functions.c   **** //            LCD_print("data to file");
  79:functions.c   ****             return 1;
  80:functions.c   ****         }
  81:functions.c   ****     }
  82:functions.c   ****     else
  83:functions.c   ****     {
  84:functions.c   **** //        LCD_print("Failed to create");
  85:functions.c   **** //        setCursor(1u, 0u);
  86:functions.c   **** //        LCD_print("file");
  87:functions.c   ****         return 1;
  88:functions.c   ****     }
  89:functions.c   ****     return 0;
 130              		.loc 1 89 0
 131 0096 06E0     		b	.L2
 132              	.LVL23:
 133              	.L3:
  26:functions.c   ****     
 134              		.loc 1 26 0
 135 0098 0124     		movs	r4, #1
 136              	.LVL24:
 137 009a 04E0     		b	.L2
 138              	.L4:
ARM GAS  C:\Users\gding\AppData\Local\Temp\ccXruLX8.s 			page 5


  43:functions.c   ****     }
 139              		.loc 1 43 0
 140 009c 0124     		movs	r4, #1
 141 009e 02E0     		b	.L2
 142              	.LVL25:
 143              	.L5:
  87:functions.c   ****     }
 144              		.loc 1 87 0
 145 00a0 0124     		movs	r4, #1
 146 00a2 00E0     		b	.L2
 147              	.LVL26:
 148              	.L6:
  79:functions.c   ****         }
 149              		.loc 1 79 0
 150 00a4 0124     		movs	r4, #1
 151              	.LVL27:
 152              	.L2:
  90:functions.c   **** }
 153              		.loc 1 90 0
 154 00a6 2046     		mov	r0, r4
 155 00a8 38BD     		pop	{r3, r4, r5, pc}
 156              	.L9:
 157 00aa 00BF     		.align	2
 158              	.L8:
 159 00ac 00000000 		.word	.LC0
 160 00b0 04000000 		.word	.LC1
 161              		.cfi_endproc
 162              	.LFE63:
 163              		.size	Initialize_SD_Card, .-Initialize_SD_Card
 164              		.section	.rodata.str1.4,"aMS",%progbits,1
 165              		.align	2
 166              	.LC0:
 167 0000 7700     		.ascii	"w\000"
 168 0002 0000     		.space	2
 169              	.LC1:
 170 0004 54657374 		.ascii	"Testing Testing\012Testing Testing\000"
 170      696E6720 
 170      54657374 
 170      696E670A 
 170      54657374 
 171              		.text
 172              	.Letext0:
 173              		.file 2 "c:\\program files (x86)\\cypress\\psoc creator\\4.0\\psoc creator\\import\\gnu\\arm\\4.9.
 174              		.file 3 "c:\\program files (x86)\\cypress\\psoc creator\\4.0\\psoc creator\\import\\gnu\\arm\\4.9.
 175              		.file 4 "Generated_Source\\PSoC5/cytypes.h"
 176              		.file 5 "..\\emFile_V322c\\emFile_V322c\\Code\\Include\\PSoC5/FS_Types.h"
 177              		.file 6 "..\\emFile_V322c\\emFile_V322c\\Code\\Include\\PSoC5/FS.h"
 178              		.file 7 "Generated_Source\\PSoC5/LED4.h"
 179              		.file 8 "Generated_Source\\PSoC5/CyLib.h"
 180              		.file 9 "Generated_Source\\PSoC5/LED6.h"
 181              		.file 10 "Generated_Source\\PSoC5/core_cm3.h"
 182              		.file 11 "Generated_Source\\PSoC5/LED7.h"