ARM GAS  C:\Users\gding\AppData\Local\Temp\ccBJfs4H.s 			page 1


   1              		.syntax unified
   2              		.cpu cortex-m3
   3              		.fpu softvfp
   4              		.eabi_attribute 20, 1
   5              		.eabi_attribute 21, 1
   6              		.eabi_attribute 23, 3
   7              		.eabi_attribute 24, 1
   8              		.eabi_attribute 25, 1
   9              		.eabi_attribute 26, 1
  10              		.eabi_attribute 30, 6
  11              		.eabi_attribute 34, 1
  12              		.eabi_attribute 18, 4
  13              		.thumb
  14              		.file	"functions.c"
  15              		.text
  16              	.Ltext0:
  17              		.cfi_sections	.debug_frame
  18              		.comm	accelData,10,4
  19              		.section	.rodata
  20              		.align	2
  21              	.LC0:
  22 0000 25642025 		.ascii	"%d %d %d     \000"
  22      64202564 
  22      20202020 
  22      2000
  23              		.section	.text.I2C_LCD_print,"ax",%progbits
  24              		.align	2
  25              		.global	I2C_LCD_print
  26              		.thumb
  27              		.thumb_func
  28              		.type	I2C_LCD_print, %function
  29              	I2C_LCD_print:
  30              	.LFB63:
  31              		.file 1 "functions.c"
   1:functions.c   **** /* ========================================
   2:functions.c   ****  *
   3:functions.c   ****  * Copyright YOUR COMPANY, THE YEAR
   4:functions.c   ****  * All Rights Reserved
   5:functions.c   ****  * UNPUBLISHED, LICENSED SOFTWARE.
   6:functions.c   ****  *
   7:functions.c   ****  * CONFIDENTIAL AND PROPRIETARY INFORMATION
   8:functions.c   ****  * WHICH IS THE PROPERTY OF your company.
   9:functions.c   ****  *
  10:functions.c   ****  * ========================================
  11:functions.c   **** */
  12:functions.c   **** #include <stdint.h>
  13:functions.c   **** #include <stdio.h>
  14:functions.c   **** #include <math.h>
  15:functions.c   **** #include "functions.h"
  16:functions.c   **** #include "LiquidCrystal_I2C.h"
  17:functions.c   **** 
  18:functions.c   **** char accelData[10];
  19:functions.c   **** 
  20:functions.c   **** void I2C_LCD_print(uint8_t row, uint8_t column, uint16_t ax, uint16_t ay,uint16_t az){
  32              		.loc 1 20 0
  33              		.cfi_startproc
  34              		@ args = 4, pretend = 0, frame = 8
ARM GAS  C:\Users\gding\AppData\Local\Temp\ccBJfs4H.s 			page 2


  35              		@ frame_needed = 1, uses_anonymous_args = 0
  36 0000 90B5     		push	{r4, r7, lr}
  37              		.cfi_def_cfa_offset 12
  38              		.cfi_offset 4, -12
  39              		.cfi_offset 7, -8
  40              		.cfi_offset 14, -4
  41 0002 85B0     		sub	sp, sp, #20
  42              		.cfi_def_cfa_offset 32
  43 0004 02AF     		add	r7, sp, #8
  44              		.cfi_def_cfa 7, 24
  45 0006 0446     		mov	r4, r0
  46 0008 0846     		mov	r0, r1
  47 000a 1146     		mov	r1, r2
  48 000c 1A46     		mov	r2, r3
  49 000e 2346     		mov	r3, r4
  50 0010 FB71     		strb	r3, [r7, #7]
  51 0012 0346     		mov	r3, r0
  52 0014 BB71     		strb	r3, [r7, #6]
  53 0016 0B46     		mov	r3, r1	@ movhi
  54 0018 BB80     		strh	r3, [r7, #4]	@ movhi
  55 001a 1346     		mov	r3, r2	@ movhi
  56 001c 7B80     		strh	r3, [r7, #2]	@ movhi
  21:functions.c   ****     sprintf(accelData,"%d %d %d     ",ax,ay,az); 
  57              		.loc 1 21 0
  58 001e BA88     		ldrh	r2, [r7, #4]
  59 0020 7C88     		ldrh	r4, [r7, #2]
  60 0022 3B8B     		ldrh	r3, [r7, #24]
  61 0024 0093     		str	r3, [sp]
  62 0026 0848     		ldr	r0, .L2
  63 0028 0849     		ldr	r1, .L2+4
  64 002a 2346     		mov	r3, r4
  65 002c FFF7FEFF 		bl	sprintf
  22:functions.c   ****     //clear();
  23:functions.c   ****     setCursor(column,row);
  66              		.loc 1 23 0
  67 0030 BA79     		ldrb	r2, [r7, #6]	@ zero_extendqisi2
  68 0032 FB79     		ldrb	r3, [r7, #7]	@ zero_extendqisi2
  69 0034 1046     		mov	r0, r2
  70 0036 1946     		mov	r1, r3
  71 0038 FFF7FEFF 		bl	setCursor
  24:functions.c   ****     LCD_print(accelData);
  72              		.loc 1 24 0
  73 003c 0248     		ldr	r0, .L2
  74 003e FFF7FEFF 		bl	LCD_print
  25:functions.c   **** }
  75              		.loc 1 25 0
  76 0042 0C37     		adds	r7, r7, #12
  77              		.cfi_def_cfa_offset 12
  78 0044 BD46     		mov	sp, r7
  79              		.cfi_def_cfa_register 13
  80              		@ sp needed
  81 0046 90BD     		pop	{r4, r7, pc}
  82              	.L3:
  83              		.align	2
  84              	.L2:
  85 0048 00000000 		.word	accelData
  86 004c 00000000 		.word	.LC0
ARM GAS  C:\Users\gding\AppData\Local\Temp\ccBJfs4H.s 			page 3


  87              		.cfi_endproc
  88              	.LFE63:
  89              		.size	I2C_LCD_print, .-I2C_LCD_print
  90              		.section	.text.ComputeMA,"ax",%progbits
  91              		.align	2
  92              		.global	ComputeMA
  93              		.thumb
  94              		.thumb_func
  95              		.type	ComputeMA, %function
  96              	ComputeMA:
  97              	.LFB64:
  26:functions.c   **** 
  27:functions.c   **** int16_t ComputeMA(int16_t avg, int16_t n, int16_t sample){
  98              		.loc 1 27 0
  99              		.cfi_startproc
 100              		@ args = 0, pretend = 0, frame = 8
 101              		@ frame_needed = 1, uses_anonymous_args = 0
 102              		@ link register save eliminated.
 103 0000 80B4     		push	{r7}
 104              		.cfi_def_cfa_offset 4
 105              		.cfi_offset 7, -4
 106 0002 83B0     		sub	sp, sp, #12
 107              		.cfi_def_cfa_offset 16
 108 0004 00AF     		add	r7, sp, #0
 109              		.cfi_def_cfa_register 7
 110 0006 0346     		mov	r3, r0
 111 0008 FB80     		strh	r3, [r7, #6]	@ movhi
 112 000a 0B46     		mov	r3, r1	@ movhi
 113 000c BB80     		strh	r3, [r7, #4]	@ movhi
 114 000e 1346     		mov	r3, r2	@ movhi
 115 0010 7B80     		strh	r3, [r7, #2]	@ movhi
  28:functions.c   ****     avg -= avg/n;
 116              		.loc 1 28 0
 117 0012 FA88     		ldrh	r2, [r7, #6]
 118 0014 B7F90610 		ldrsh	r1, [r7, #6]
 119 0018 B7F90430 		ldrsh	r3, [r7, #4]
 120 001c 91FBF3F3 		sdiv	r3, r1, r3
 121 0020 9BB2     		uxth	r3, r3
 122 0022 D31A     		subs	r3, r2, r3
 123 0024 9BB2     		uxth	r3, r3
 124 0026 FB80     		strh	r3, [r7, #6]	@ movhi
  29:functions.c   ****     avg += sample/n;
 125              		.loc 1 29 0
 126 0028 B7F90220 		ldrsh	r2, [r7, #2]
 127 002c B7F90430 		ldrsh	r3, [r7, #4]
 128 0030 92FBF3F3 		sdiv	r3, r2, r3
 129 0034 9AB2     		uxth	r2, r3
 130 0036 FB88     		ldrh	r3, [r7, #6]
 131 0038 1344     		add	r3, r3, r2
 132 003a 9BB2     		uxth	r3, r3
 133 003c FB80     		strh	r3, [r7, #6]	@ movhi
  30:functions.c   ****     return avg;    
 134              		.loc 1 30 0
 135 003e FB88     		ldrh	r3, [r7, #6]
 136 0040 1BB2     		sxth	r3, r3
  31:functions.c   **** }
 137              		.loc 1 31 0
ARM GAS  C:\Users\gding\AppData\Local\Temp\ccBJfs4H.s 			page 4


 138 0042 1846     		mov	r0, r3
 139 0044 0C37     		adds	r7, r7, #12
 140              		.cfi_def_cfa_offset 4
 141 0046 BD46     		mov	sp, r7
 142              		.cfi_def_cfa_register 13
 143              		@ sp needed
 144 0048 5DF8047B 		ldr	r7, [sp], #4
 145              		.cfi_restore 7
 146              		.cfi_def_cfa_offset 0
 147 004c 7047     		bx	lr
 148              		.cfi_endproc
 149              	.LFE64:
 150              		.size	ComputeMA, .-ComputeMA
 151 004e 00BF     		.section	.rodata
 152 000e 0000     		.align	2
 153              	.LC1:
 154 0010 7700     		.ascii	"w\000"
 155 0012 0000     		.align	2
 156              	.LC2:
 157 0014 54657374 		.ascii	"Testing Testing\012Testing\000"
 157      696E6720 
 157      54657374 
 157      696E670A 
 157      54657374 
 158              		.section	.text.Initialize_SD_Card,"ax",%progbits
 159              		.align	2
 160              		.global	Initialize_SD_Card
 161              		.thumb
 162              		.thumb_func
 163              		.type	Initialize_SD_Card, %function
 164              	Initialize_SD_Card:
 165              	.LFB65:
  32:functions.c   **** 
  33:functions.c   **** int Initialize_SD_Card(char *filename, char *volname, FS_FILE *file){
 166              		.loc 1 33 0
 167              		.cfi_startproc
 168              		@ args = 0, pretend = 0, frame = 16
 169              		@ frame_needed = 1, uses_anonymous_args = 0
 170 0000 80B5     		push	{r7, lr}
 171              		.cfi_def_cfa_offset 8
 172              		.cfi_offset 7, -8
 173              		.cfi_offset 14, -4
 174 0002 84B0     		sub	sp, sp, #16
 175              		.cfi_def_cfa_offset 24
 176 0004 00AF     		add	r7, sp, #0
 177              		.cfi_def_cfa_register 7
 178 0006 F860     		str	r0, [r7, #12]
 179 0008 B960     		str	r1, [r7, #8]
 180 000a 7A60     		str	r2, [r7, #4]
  34:functions.c   ****     FS_Init();
 181              		.loc 1 34 0
 182 000c FFF7FEFF 		bl	FS_Init
  35:functions.c   ****     FS_Mount(volname);
 183              		.loc 1 35 0
 184 0010 B868     		ldr	r0, [r7, #8]
 185 0012 FFF7FEFF 		bl	FS_Mount
  36:functions.c   ****     if(0 != FS_GetVolumeName(0u, volname, 9u))
ARM GAS  C:\Users\gding\AppData\Local\Temp\ccBJfs4H.s 			page 5


 186              		.loc 1 36 0
 187 0016 0020     		movs	r0, #0
 188 0018 B968     		ldr	r1, [r7, #8]
 189 001a 0922     		movs	r2, #9
 190 001c FFF7FEFF 		bl	FS_GetVolumeName
 191 0020 0346     		mov	r3, r0
 192 0022 002B     		cmp	r3, #0
 193 0024 10D0     		beq	.L7
  37:functions.c   ****     {
  38:functions.c   ****         /* Getting volume name succeeded so prompt it on the LCD */
  39:functions.c   ****         LED4_Write(1);
 194              		.loc 1 39 0
 195 0026 0120     		movs	r0, #1
 196 0028 FFF7FEFF 		bl	LED4_Write
  40:functions.c   ****         CyDelay(500u);
 197              		.loc 1 40 0
 198 002c 4FF4FA70 		mov	r0, #500
 199 0030 FFF7FEFF 		bl	CyDelay
  41:functions.c   ****     }
  42:functions.c   ****     else
  43:functions.c   ****         return 1;   
  44:functions.c   ****     
  45:functions.c   ****     LED4_Write(0);
 200              		.loc 1 45 0
 201 0034 0020     		movs	r0, #0
 202 0036 FFF7FEFF 		bl	LED4_Write
  46:functions.c   **** //    setCursor(0u, 0u);
  47:functions.c   **** //    LCD_print("SD card format");
  48:functions.c   ****     
  49:functions.c   ****     if(0 == FS_FormatSD(volname))
 203              		.loc 1 49 0
 204 003a B868     		ldr	r0, [r7, #8]
 205 003c FFF7FEFF 		bl	FS_FormatSD
 206 0040 0346     		mov	r3, r0
 207 0042 002B     		cmp	r3, #0
 208 0044 12D1     		bne	.L10
 209 0046 01E0     		b	.L15
 210              	.L7:
  43:functions.c   ****     
 211              		.loc 1 43 0
 212 0048 0123     		movs	r3, #1
 213 004a 2BE0     		b	.L9
 214              	.L15:
  50:functions.c   ****     {
  51:functions.c   ****         LED4_Write(1);
 215              		.loc 1 51 0
 216 004c 0120     		movs	r0, #1
 217 004e FFF7FEFF 		bl	LED4_Write
  52:functions.c   **** //        setCursor(1u, 0u);
  53:functions.c   **** //        LCD_print("Succeeded");
  54:functions.c   ****     }
  55:functions.c   ****     else
  56:functions.c   ****     {
  57:functions.c   **** //        setCursor(1u, 0u);
  58:functions.c   **** //        LCD_print("Failed");
  59:functions.c   ****         return 1;
  60:functions.c   ****     }
ARM GAS  C:\Users\gding\AppData\Local\Temp\ccBJfs4H.s 			page 6


  61:functions.c   ****     CyDelay(500u);
 218              		.loc 1 61 0
 219 0052 4FF4FA70 		mov	r0, #500
 220 0056 FFF7FEFF 		bl	CyDelay
  62:functions.c   ****     
  63:functions.c   ****     file = FS_FOpen(filename, "w");
 221              		.loc 1 63 0
 222 005a F868     		ldr	r0, [r7, #12]
 223 005c 1349     		ldr	r1, .L17
 224 005e FFF7FEFF 		bl	FS_FOpen
 225 0062 7860     		str	r0, [r7, #4]
  64:functions.c   ****     if(file)
 226              		.loc 1 64 0
 227 0064 7B68     		ldr	r3, [r7, #4]
 228 0066 002B     		cmp	r3, #0
 229 0068 1BD0     		beq	.L12
 230 006a 01E0     		b	.L16
 231              	.L10:
  59:functions.c   ****     }
 232              		.loc 1 59 0
 233 006c 0123     		movs	r3, #1
 234 006e 19E0     		b	.L9
 235              	.L16:
  65:functions.c   ****     {
  66:functions.c   ****         /* Indicate successful file creation message */
  67:functions.c   **** //        LCD_print("File ");
  68:functions.c   **** //        LCD_print(filename);
  69:functions.c   **** //        setCursor(1u, 0u);
  70:functions.c   **** //        LCD_print("was opened");
  71:functions.c   ****         LED4_Write(1);
 236              		.loc 1 71 0
 237 0070 0120     		movs	r0, #1
 238 0072 FFF7FEFF 		bl	LED4_Write
  72:functions.c   ****         /* Need some delay to indicate output on the LCD */
  73:functions.c   ****         CyDelay(500u);
 239              		.loc 1 73 0
 240 0076 4FF4FA70 		mov	r0, #500
 241 007a FFF7FEFF 		bl	CyDelay
  74:functions.c   ****         LED4_Write(0);
 242              		.loc 1 74 0
 243 007e 0020     		movs	r0, #0
 244 0080 FFF7FEFF 		bl	LED4_Write
  75:functions.c   **** //        clear();
  76:functions.c   ****         
  77:functions.c   **** //        setCursor(0u, 0u);
  78:functions.c   ****         
  79:functions.c   ****         if(0 != FS_Write(file, "Testing Testing\nTesting", 23u)) 
 245              		.loc 1 79 0
 246 0084 7868     		ldr	r0, [r7, #4]
 247 0086 0A49     		ldr	r1, .L17+4
 248 0088 1722     		movs	r2, #23
 249 008a FFF7FEFF 		bl	FS_Write
 250 008e 0346     		mov	r3, r0
 251 0090 002B     		cmp	r3, #0
 252 0092 04D0     		beq	.L13
  80:functions.c   ****         {
  81:functions.c   ****             /* Inditate that data was written to a file */
ARM GAS  C:\Users\gding\AppData\Local\Temp\ccBJfs4H.s 			page 7


  82:functions.c   **** //            LCD_print("\"0123456789\"");
  83:functions.c   **** //            LCD_print(filename);
  84:functions.c   **** //            setCursor(1u, 0u);
  85:functions.c   **** //            LCD_print("written to file");
  86:functions.c   ****             LED4_Write(1);
 253              		.loc 1 86 0
 254 0094 0120     		movs	r0, #1
 255 0096 FFF7FEFF 		bl	LED4_Write
  87:functions.c   ****         }
  88:functions.c   ****         else
  89:functions.c   ****         {
  90:functions.c   **** //            LCD_print("Failed to write");
  91:functions.c   **** //            setCursor(1u, 0u);
  92:functions.c   **** //            LCD_print("data to file");
  93:functions.c   ****             return 1;
  94:functions.c   ****         }
  95:functions.c   ****     }
  96:functions.c   ****     else
  97:functions.c   ****     {
  98:functions.c   **** //        LCD_print("Failed to create");
  99:functions.c   **** //        setCursor(1u, 0u);
 100:functions.c   **** //        LCD_print("file");
 101:functions.c   ****         return 1;
 102:functions.c   ****     }
 103:functions.c   ****     return 0;
 256              		.loc 1 103 0
 257 009a 0023     		movs	r3, #0
 258 009c 02E0     		b	.L9
 259              	.L13:
  93:functions.c   ****         }
 260              		.loc 1 93 0
 261 009e 0123     		movs	r3, #1
 262 00a0 00E0     		b	.L9
 263              	.L12:
 101:functions.c   ****     }
 264              		.loc 1 101 0
 265 00a2 0123     		movs	r3, #1
 266              	.L9:
 104:functions.c   **** }
 267              		.loc 1 104 0
 268 00a4 1846     		mov	r0, r3
 269 00a6 1037     		adds	r7, r7, #16
 270              		.cfi_def_cfa_offset 8
 271 00a8 BD46     		mov	sp, r7
 272              		.cfi_def_cfa_register 13
 273              		@ sp needed
 274 00aa 80BD     		pop	{r7, pc}
 275              	.L18:
 276              		.align	2
 277              	.L17:
 278 00ac 10000000 		.word	.LC1
 279 00b0 14000000 		.word	.LC2
 280              		.cfi_endproc
 281              	.LFE65:
 282              		.size	Initialize_SD_Card, .-Initialize_SD_Card
 283              		.text
 284              	.Letext0:
ARM GAS  C:\Users\gding\AppData\Local\Temp\ccBJfs4H.s 			page 8


 285              		.file 2 "c:\\program files (x86)\\cypress\\psoc creator\\4.0\\psoc creator\\import\\gnu\\arm\\4.9.
 286              		.file 3 "c:\\program files (x86)\\cypress\\psoc creator\\4.0\\psoc creator\\import\\gnu\\arm\\4.9.
 287              		.file 4 ".\\emFile_V322c\\emFile_V322c\\Code\\Include\\PSoC5/FS_Types.h"
 288              		.file 5 "Generated_Source\\PSoC5/core_cm3.h"