ARM GAS  C:\Users\gding\AppData\Local\Temp\cc51JLLN.s 			page 1


   1              		.syntax unified
   2              		.cpu cortex-m3
   3              		.fpu softvfp
   4              		.eabi_attribute 20, 1
   5              		.eabi_attribute 21, 1
   6              		.eabi_attribute 23, 3
   7              		.eabi_attribute 24, 1
   8              		.eabi_attribute 25, 1
   9              		.eabi_attribute 26, 1
  10              		.eabi_attribute 30, 6
  11              		.eabi_attribute 34, 1
  12              		.eabi_attribute 18, 4
  13              		.thumb
  14              		.file	"main.c"
  15              		.text
  16              	.Ltext0:
  17              		.cfi_sections	.debug_frame
  18              		.comm	devAddr,1,1
  19              		.comm	buffer,22,4
  20              		.global	Addr
  21              		.data
  22              		.align	2
  23              		.type	Addr, %object
  24              		.size	Addr, 4
  25              	Addr:
  26 0000 3F000000 		.word	63
  27              		.global	id
  28              		.align	2
  29              		.type	id, %object
  30              		.size	id, 4
  31              	id:
  32 0004 01000000 		.word	1
  33              		.global	data_point
  34              		.bss
  35              		.align	2
  36              		.type	data_point, %object
  37              		.size	data_point, 4
  38              	data_point:
  39 0000 00000000 		.space	4
  40              		.global	sum
  41              		.align	2
  42              		.type	sum, %object
  43              		.size	sum, 4
  44              	sum:
  45 0004 00000000 		.space	4
  46              		.global	average
  47              		.align	1
  48              		.type	average, %object
  49              		.size	average, 2
  50              	average:
  51 0008 0000     		.space	2
  52              		.global	collect_flag
  53              		.type	collect_flag, %object
  54              		.size	collect_flag, 1
  55              	collect_flag:
  56 000a 00       		.space	1
  57              		.global	wait_flag
ARM GAS  C:\Users\gding\AppData\Local\Temp\cc51JLLN.s 			page 2


  58              		.type	wait_flag, %object
  59              		.size	wait_flag, 1
  60              	wait_flag:
  61 000b 00       		.space	1
  62              		.global	STATE
  63              		.data
  64              		.type	STATE, %object
  65              		.size	STATE, 1
  66              	STATE:
  67 0008 01       		.byte	1
  68              		.global	testnum
  69              		.type	testnum, %object
  70              		.size	testnum, 1
  71              	testnum:
  72 0009 01       		.byte	1
  73              		.global	countdown
  74              		.bss
  75              		.type	countdown, %object
  76              		.size	countdown, 1
  77              	countdown:
  78 000c 00       		.space	1
  79              		.global	file
  80              		.data
  81 000a 0000     		.align	2
  82              		.type	file, %object
  83              		.size	file, 11
  84              	file:
  85 000c 74657374 		.ascii	"test1.txt\000"
  85      312E7478 
  85      7400
  86 0016 00       		.space	1
  87              		.global	volume
  88 0017 00       		.align	2
  89              		.type	volume, %object
  90              		.size	volume, 7
  91              	volume:
  92 0018 766F6C75 		.ascii	"volume\000"
  92      6D6500
  93              		.global	fsfile
  94 001f 00       		.bss
  95 000d 000000   		.align	2
  96              		.type	fsfile, %object
  97              		.size	fsfile, 4
  98              	fsfile:
  99 0010 00000000 		.space	4
 100              		.section	.text.Sample_ISR_Handler,"ax",%progbits
 101              		.align	2
 102              		.global	Sample_ISR_Handler
 103              		.thumb
 104              		.thumb_func
 105              		.type	Sample_ISR_Handler, %function
 106              	Sample_ISR_Handler:
 107              	.LFB63:
 108              		.file 1 "main.c"
   1:main.c        **** /*******************************************************************************
   2:main.c        **** * File Name: main.c
   3:main.c        **** *
ARM GAS  C:\Users\gding\AppData\Local\Temp\cc51JLLN.s 			page 3


   4:main.c        **** * Version: 2.20
   5:main.c        **** *
   6:main.c        **** * Description:
   7:main.c        **** *   This is a source code for example project of ADC single ended mode.
   8:main.c        **** *
   9:main.c        **** *   Variable resistor(pot) is connected to +ve input of ADC using the I/O pin.
  10:main.c        **** *   P0.0. When voltage to positive terminal of ADC is 0, the output displayed
  11:main.c        **** *   on the LCD pannel is 0x0000. As voltage on positive terminal goes on
  12:main.c        **** *   increasing, the  converted value goes on increasing from 0x0000 and reaches
  13:main.c        **** *   0xFFFF when voltage becomes 1.024V. Futher increase in voltage value,
  14:main.c        **** *   doesn't cause any changes to values displayed in the LCD.
  15:main.c        **** *
  16:main.c        **** * Hardware Connections: 
  17:main.c        **** *  Connect analog input from Variable resistor to port P0[0] of DVK1 board.
  18:main.c        **** *
  19:main.c        **** ********************************************************************************
  20:main.c        **** * Copyright 2012-2015, Cypress Semiconductor Corporation. All rights reserved.
  21:main.c        **** * This software is owned by Cypress Semiconductor Corporation and is protected
  22:main.c        **** * by and subject to worldwide patent and copyright laws and treaties.
  23:main.c        **** * Therefore, you may use this software only as provided in the license agreement
  24:main.c        **** * accompanying the software package from which you obtained this software.
  25:main.c        **** * CYPRESS AND ITS SUPPLIERS MAKE NO WARRANTY OF ANY KIND, EXPRESS OR IMPLIED,
  26:main.c        **** * WITH REGARD TO THIS SOFTWARE, INCLUDING, BUT NOT LIMITED TO, NONINFRINGEMENT,
  27:main.c        **** * IMPLIED WARRANTIES OF MERCHANTABILITY AND FITNESS FOR A PARTICULAR PURPOSE.
  28:main.c        **** *******************************************************************************/
  29:main.c        **** 
  30:main.c        **** #include <project.h>
  31:main.c        **** #include <mpu6050.h>
  32:main.c        **** #include <stdio.h>
  33:main.c        **** #include <string.h>
  34:main.c        **** #include <FS.h>
  35:main.c        **** #include "LiquidCrystal_I2C.h"
  36:main.c        **** #include "functions.h"
  37:main.c        **** 
  38:main.c        **** #define MPU6050 
  39:main.c        **** #define LCD
  40:main.c        **** //#define SD
  41:main.c        **** 
  42:main.c        **** #define MA_WINDOW 15                    // Number of samples in the moving average window.
  43:main.c        **** #define BOT_THRESHOLD 20000             // Z-Aacceleration threshold for transition into LANDED sta
  44:main.c        **** #define WAIT_TIME 1000                  // Number of ISR calls until transition into DESCENDING sta
  45:main.c        **** #define DATA_TIME 5000                  // Number of ISR calls until transition into WAIT_TO_LAUNCH
  46:main.c        **** 
  47:main.c        **** 
  48:main.c        **** /*State Declarations*/
  49:main.c        **** enum STATES{
  50:main.c        **** SYSTEM_CHECK, 
  51:main.c        **** WAIT_TO_LAUNCH,
  52:main.c        **** DESCENDING,
  53:main.c        **** LANDED,
  54:main.c        **** RESURFACE,
  55:main.c        **** TRANSMIT,
  56:main.c        **** ERROR
  57:main.c        **** };
  58:main.c        **** 
  59:main.c        **** 
  60:main.c        **** uint32_t Addr = 0x3F;                       // I2C address of LCD.
ARM GAS  C:\Users\gding\AppData\Local\Temp\cc51JLLN.s 			page 4


  61:main.c        **** long id = 1;                                // Interrupt count.
  62:main.c        **** long data_point = 0;                        // data point num
  63:main.c        **** 
  64:main.c        **** long sum = 0;                               // Sum of accelerometer values. 
  65:main.c        **** int16_t average = 0;                        // Moving average variable.
  66:main.c        **** bool collect_flag = 0;                      // flag indicating when to record acceleration sample.
  67:main.c        **** bool wait_flag = 0;                         // flag indicating when to increment interrupt counter.
  68:main.c        **** //bool first_test = 1;                        // flag indicating first test(longer countdown)
  69:main.c        **** enum STATES STATE = WAIT_TO_LAUNCH;         // Set initial state. 
  70:main.c        **** uint8_t testnum = 1, countdown = 0;
  71:main.c        **** char file[11] = "test1.txt";
  72:main.c        **** char volume[7] = "volume";
  73:main.c        **** FS_FILE *fsfile = NULL;
  74:main.c        **** 
  75:main.c        **** /*******************************************************************************
  76:main.c        **** * Function Name: main
  77:main.c        **** ********************************************************************************
  78:main.c        **** *
  79:main.c        **** * Summary:
  80:main.c        **** *  main() performs following functions:
  81:main.c        **** *  1: Initializes the LCD.
  82:main.c        **** *  2: Initializes timer module and sampling interrupt.
  83:main.c        **** *  3: Initializes MPU6050 Accelerometer/Gyroscope module.
  84:main.c        **** *  4: Samples Z-axis acceleration data from module @ 500hz.
  85:main.c        **** *  5: Computes moving average of Z-axis acceleration values.
  86:main.c        **** *  6: Transitions from DESCENDING to LANDED state when sudden acceleration occurs
  87:main.c        **** *     (ie. moving average > 200000).
  88:main.c        **** *
  89:main.c        **** * Parameters:
  90:main.c        **** *  None.
  91:main.c        **** *
  92:main.c        **** * Return:
  93:main.c        **** *  None.
  94:main.c        **** *
  95:main.c        **** *******************************************************************************/
  96:main.c        **** 
  97:main.c        **** /* Sampling ISR */
  98:main.c        **** CY_ISR (Sample_ISR_Handler){
 109              		.loc 1 98 0
 110              		.cfi_startproc
 111              		@ args = 0, pretend = 0, frame = 0
 112              		@ frame_needed = 1, uses_anonymous_args = 0
 113              		@ link register save eliminated.
 114 0000 80B4     		push	{r7}
 115              		.cfi_def_cfa_offset 4
 116              		.cfi_offset 7, -4
 117 0002 00AF     		add	r7, sp, #0
 118              		.cfi_def_cfa_register 7
  99:main.c        ****     
 100:main.c        ****     Sample_Timer_STATUS;                        //Clears interrupt by accessing timer status regist
 119              		.loc 1 100 0
 120 0004 084B     		ldr	r3, .L3
 121 0006 1B78     		ldrb	r3, [r3]
 101:main.c        ****     if (STATE == DESCENDING){ 
 122              		.loc 1 101 0
 123 0008 084B     		ldr	r3, .L3+4
 124 000a 1B78     		ldrb	r3, [r3]	@ zero_extendqisi2
ARM GAS  C:\Users\gding\AppData\Local\Temp\cc51JLLN.s 			page 5


 125 000c 022B     		cmp	r3, #2
 126 000e 07D1     		bne	.L1
 102:main.c        ****         collect_flag = 1;
 127              		.loc 1 102 0
 128 0010 074B     		ldr	r3, .L3+8
 129 0012 0122     		movs	r2, #1
 130 0014 1A70     		strb	r2, [r3]
 103:main.c        ****         data_point++;
 131              		.loc 1 103 0
 132 0016 074B     		ldr	r3, .L3+12
 133 0018 1B68     		ldr	r3, [r3]
 134 001a 0133     		adds	r3, r3, #1
 135 001c 054A     		ldr	r2, .L3+12
 136 001e 1360     		str	r3, [r2]
 137              	.L1:
 104:main.c        ****     }
 105:main.c        **** }
 138              		.loc 1 105 0
 139 0020 BD46     		mov	sp, r7
 140              		.cfi_def_cfa_register 13
 141              		@ sp needed
 142 0022 5DF8047B 		ldr	r7, [sp], #4
 143              		.cfi_restore 7
 144              		.cfi_def_cfa_offset 0
 145 0026 7047     		bx	lr
 146              	.L4:
 147              		.align	2
 148              	.L3:
 149 0028 034F0040 		.word	1073762051
 150 002c 00000000 		.word	STATE
 151 0030 00000000 		.word	collect_flag
 152 0034 00000000 		.word	data_point
 153              		.cfi_endproc
 154              	.LFE63:
 155              		.size	Sample_ISR_Handler, .-Sample_ISR_Handler
 156              		.section	.text.Countdown_ISR_Handler,"ax",%progbits
 157              		.align	2
 158              		.global	Countdown_ISR_Handler
 159              		.thumb
 160              		.thumb_func
 161              		.type	Countdown_ISR_Handler, %function
 162              	Countdown_ISR_Handler:
 163              	.LFB64:
 106:main.c        **** 
 107:main.c        **** CY_ISR (Countdown_ISR_Handler){
 164              		.loc 1 107 0
 165              		.cfi_startproc
 166              		@ args = 0, pretend = 0, frame = 0
 167              		@ frame_needed = 1, uses_anonymous_args = 0
 168              		@ link register save eliminated.
 169 0000 80B4     		push	{r7}
 170              		.cfi_def_cfa_offset 4
 171              		.cfi_offset 7, -4
 172 0002 00AF     		add	r7, sp, #0
 173              		.cfi_def_cfa_register 7
 108:main.c        ****     
 109:main.c        ****     Countdown_timer_STATUS;                        //Clears interrupt by accessing timer status reg
ARM GAS  C:\Users\gding\AppData\Local\Temp\cc51JLLN.s 			page 6


 174              		.loc 1 109 0
 175 0004 094B     		ldr	r3, .L7
 176 0006 1B78     		ldrb	r3, [r3]
 110:main.c        ****     if (STATE == WAIT_TO_LAUNCH){ 
 177              		.loc 1 110 0
 178 0008 094B     		ldr	r3, .L7+4
 179 000a 1B78     		ldrb	r3, [r3]	@ zero_extendqisi2
 180 000c 012B     		cmp	r3, #1
 181 000e 08D1     		bne	.L5
 111:main.c        ****         wait_flag = 1;
 182              		.loc 1 111 0
 183 0010 084B     		ldr	r3, .L7+8
 184 0012 0122     		movs	r2, #1
 185 0014 1A70     		strb	r2, [r3]
 112:main.c        ****         countdown++;
 186              		.loc 1 112 0
 187 0016 084B     		ldr	r3, .L7+12
 188 0018 1B78     		ldrb	r3, [r3]	@ zero_extendqisi2
 189 001a 0133     		adds	r3, r3, #1
 190 001c DAB2     		uxtb	r2, r3
 191 001e 064B     		ldr	r3, .L7+12
 192 0020 1A70     		strb	r2, [r3]
 193              	.L5:
 113:main.c        ****     }
 114:main.c        **** }
 194              		.loc 1 114 0
 195 0022 BD46     		mov	sp, r7
 196              		.cfi_def_cfa_register 13
 197              		@ sp needed
 198 0024 5DF8047B 		ldr	r7, [sp], #4
 199              		.cfi_restore 7
 200              		.cfi_def_cfa_offset 0
 201 0028 7047     		bx	lr
 202              	.L8:
 203 002a 00BF     		.align	2
 204              	.L7:
 205 002c 67650040 		.word	1073767783
 206 0030 00000000 		.word	STATE
 207 0034 00000000 		.word	wait_flag
 208 0038 00000000 		.word	countdown
 209              		.cfi_endproc
 210              	.LFE64:
 211              		.size	Countdown_ISR_Handler, .-Countdown_ISR_Handler
 212              		.section	.rodata
 213              		.align	2
 214              	.LC1:
 215 0000 50536F43 		.ascii	"PSoC 5LP: O-Vac\000"
 215      20354C50 
 215      3A204F2D 
 215      56616300 
 216              		.align	2
 217              	.LC2:
 218 0010 49324320 		.ascii	"I2C Working\000"
 218      576F726B 
 218      696E6700 
 219              		.global	__aeabi_i2f
 220              		.global	__aeabi_f2d
ARM GAS  C:\Users\gding\AppData\Local\Temp\cc51JLLN.s 			page 7


 221              		.global	__aeabi_dmul
 222              		.global	__aeabi_d2f
 223              		.global	__aeabi_f2iz
 224              		.global	__aeabi_fsub
 225              		.global	__aeabi_fmul
 226              		.align	2
 227              	.LC3:
 228 001c 542D6D69 		.ascii	"T-minus %d seconds\012\000"
 228      6E757320 
 228      25642073 
 228      65636F6E 
 228      64730A00 
 229              		.align	2
 230              	.LC4:
 231 0030 53544154 		.ascii	"STATE: DESCENT\000"
 231      453A2044 
 231      45534345 
 231      4E5400
 232 003f 00       		.align	2
 233              	.LC5:
 234 0040 53544154 		.ascii	"STATE: LANDED\000"
 234      453A204C 
 234      414E4445 
 234      4400
 235 004e 0000     		.align	2
 236              	.LC6:
 237 0050 53544154 		.ascii	"STATE: WAIT\000"
 237      453A2057 
 237      41495400 
 238              		.align	2
 239              	.LC0:
 240 005c 53595354 		.ascii	"SYSTEM_CHECK  \000"
 240      454D5F43 
 240      4845434B 
 240      202000
 241 006b 00       		.section	.text.main,"ax",%progbits
 242              		.align	2
 243              		.global	main
 244              		.thumb
 245              		.thumb_func
 246              		.type	main, %function
 247              	main:
 248              	.LFB65:
 115:main.c        **** 
 116:main.c        **** int main()
 117:main.c        **** {
 249              		.loc 1 117 0
 250              		.cfi_startproc
 251              		@ args = 0, pretend = 0, frame = 184
 252              		@ frame_needed = 1, uses_anonymous_args = 0
 253 0000 90B5     		push	{r4, r7, lr}
 254              		.cfi_def_cfa_offset 12
 255              		.cfi_offset 4, -12
 256              		.cfi_offset 7, -8
 257              		.cfi_offset 14, -4
 258 0002 AFB0     		sub	sp, sp, #188
 259              		.cfi_def_cfa_offset 200
ARM GAS  C:\Users\gding\AppData\Local\Temp\cc51JLLN.s 			page 8


 260 0004 00AF     		add	r7, sp, #0
 261              		.cfi_def_cfa_register 7
 118:main.c        ****     float output;
 119:main.c        ****     char buf[50];                               //just to hold text values in for writing to UART
 120:main.c        ****     char sdbuf[40] = {};
 262              		.loc 1 120 0
 263 0006 07F14403 		add	r3, r7, #68
 264 000a 0022     		movs	r2, #0
 265 000c 1A60     		str	r2, [r3]
 266 000e 0433     		adds	r3, r3, #4
 267 0010 0022     		movs	r2, #0
 268 0012 1A60     		str	r2, [r3]
 269 0014 0433     		adds	r3, r3, #4
 270 0016 0022     		movs	r2, #0
 271 0018 1A60     		str	r2, [r3]
 272 001a 0433     		adds	r3, r3, #4
 273 001c 0022     		movs	r2, #0
 274 001e 1A60     		str	r2, [r3]
 275 0020 0433     		adds	r3, r3, #4
 276 0022 0022     		movs	r2, #0
 277 0024 1A60     		str	r2, [r3]
 278 0026 0433     		adds	r3, r3, #4
 279 0028 0022     		movs	r2, #0
 280 002a 1A60     		str	r2, [r3]
 281 002c 0433     		adds	r3, r3, #4
 282 002e 0022     		movs	r2, #0
 283 0030 1A60     		str	r2, [r3]
 284 0032 0433     		adds	r3, r3, #4
 285 0034 0022     		movs	r2, #0
 286 0036 1A60     		str	r2, [r3]
 287 0038 0433     		adds	r3, r3, #4
 288 003a 0022     		movs	r2, #0
 289 003c 1A60     		str	r2, [r3]
 290 003e 0433     		adds	r3, r3, #4
 291 0040 0022     		movs	r2, #0
 292 0042 1A60     		str	r2, [r3]
 293 0044 0433     		adds	r3, r3, #4
 121:main.c        ****     char curState[14] = "SYSTEM_CHECK  ";
 294              		.loc 1 121 0
 295 0046 B64B     		ldr	r3, .L25+8
 296 0048 07F13404 		add	r4, r7, #52
 297 004c 0FCB     		ldmia	r3, {r0, r1, r2, r3}
 298 004e 07C4     		stmia	r4!, {r0, r1, r2}
 299 0050 2380     		strh	r3, [r4]	@ movhi
 122:main.c        ****     int16_t ax, ay, az, i;
 123:main.c        ****     //int16_t gx, gy, gz;
 124:main.c        ****     int16_t z_offset = 0;
 300              		.loc 1 124 0
 301 0052 0023     		movs	r3, #0
 302 0054 A7F8B630 		strh	r3, [r7, #182]	@ movhi
 125:main.c        ****     
 126:main.c        ****     /* Start the components */
 127:main.c        ****     CYGlobalIntEnable;                          //enable global interrupts
 303              		.loc 1 127 0
 304              	@ 127 "main.c" 1
 305 0058 62B6     		CPSIE   i
 306              	@ 0 "" 2
ARM GAS  C:\Users\gding\AppData\Local\Temp\cc51JLLN.s 			page 9


 128:main.c        ****     I2C_Master_Start(); 
 307              		.loc 1 128 0
 308              		.thumb
 309 005a FFF7FEFF 		bl	I2C_Master_Start
 129:main.c        ****     ADC_Start();
 310              		.loc 1 129 0
 311 005e FFF7FEFF 		bl	ADC_Start
 130:main.c        ****     Sample_Timer_Start();                       //start timer module
 312              		.loc 1 130 0
 313 0062 FFF7FEFF 		bl	Sample_Timer_Start
 131:main.c        ****     Sample_ISR_StartEx(Sample_ISR_Handler);     //reference ISR function
 314              		.loc 1 131 0
 315 0066 AF48     		ldr	r0, .L25+12
 316 0068 FFF7FEFF 		bl	Sample_ISR_StartEx
 132:main.c        ****     
 133:main.c        ****     
 134:main.c        ****     #ifdef LCD
 135:main.c        ****     LiquidCrystal_I2C_init(Addr,16,2,0);        //initialize I2C communication with LCD
 317              		.loc 1 135 0
 318 006c AE4B     		ldr	r3, .L25+16
 319 006e 1B68     		ldr	r3, [r3]
 320 0070 DBB2     		uxtb	r3, r3
 321 0072 1846     		mov	r0, r3
 322 0074 1021     		movs	r1, #16
 323 0076 0222     		movs	r2, #2
 324 0078 0023     		movs	r3, #0
 325 007a FFF7FEFF 		bl	LiquidCrystal_I2C_init
 136:main.c        ****     begin(); 
 326              		.loc 1 136 0
 327 007e FFF7FEFF 		bl	begin
 137:main.c        ****     
 138:main.c        ****     #endif
 139:main.c        ****    
 140:main.c        ****     /* initialize MPU6050 */
 141:main.c        ****     #ifdef MPU6050
 142:main.c        ****     MPU6050_init();    
 328              		.loc 1 142 0
 329 0082 FFF7FEFF 		bl	MPU6050_init
 143:main.c        **** 	MPU6050_initialize(); 
 330              		.loc 1 143 0
 331 0086 FFF7FEFF 		bl	MPU6050_initialize
 144:main.c        ****     #endif
 145:main.c        ****         
 146:main.c        ****     #ifdef LCD
 147:main.c        ****     /* Startup Display */
 148:main.c        ****     LCD_print("PSoC 5LP: O-Vac");
 332              		.loc 1 148 0
 333 008a A848     		ldr	r0, .L25+20
 334 008c FFF7FEFF 		bl	LCD_print
 149:main.c        ****     setCursor(0,1);
 335              		.loc 1 149 0
 336 0090 0020     		movs	r0, #0
 337 0092 0121     		movs	r1, #1
 338 0094 FFF7FEFF 		bl	setCursor
 150:main.c        ****     LCD_print("I2C Working");
 339              		.loc 1 150 0
 340 0098 A548     		ldr	r0, .L25+24
ARM GAS  C:\Users\gding\AppData\Local\Temp\cc51JLLN.s 			page 10


 341 009a FFF7FEFF 		bl	LCD_print
 151:main.c        ****     
 152:main.c        ****     CyDelay(1000u);   
 342              		.loc 1 152 0
 343 009e 4FF47A70 		mov	r0, #1000
 344 00a2 FFF7FEFF 		bl	CyDelay
 153:main.c        ****     clear();
 345              		.loc 1 153 0
 346 00a6 FFF7FEFF 		bl	clear
 154:main.c        ****     #endif
 155:main.c        ****     
 156:main.c        ****     /* Start the ADC conversion */
 157:main.c        ****     ADC_StartConvert();
 347              		.loc 1 157 0
 348 00aa FFF7FEFF 		bl	ADC_StartConvert
 158:main.c        **** 
 159:main.c        ****     /* Start SD card*/
 160:main.c        ****     #ifdef SD
 161:main.c        ****         Initialize_SD_Card(file ,volume, fsfile);
 162:main.c        ****     #endif
 163:main.c        ****     
 164:main.c        ****     #ifdef LCD
 165:main.c        ****     /* Display the current State */
 166:main.c        ****     setCursor(0,0);    
 349              		.loc 1 166 0
 350 00ae 0020     		movs	r0, #0
 351 00b0 0021     		movs	r1, #0
 352 00b2 FFF7FEFF 		bl	setCursor
 167:main.c        ****     LCD_print(curState);
 353              		.loc 1 167 0
 354 00b6 07F13403 		add	r3, r7, #52
 355 00ba 1846     		mov	r0, r3
 356 00bc FFF7FEFF 		bl	LCD_print
 168:main.c        ****     #endif
 169:main.c        ****     
 170:main.c        ****     
 171:main.c        ****     Countdown_timer_Start();
 357              		.loc 1 171 0
 358 00c0 FFF7FEFF 		bl	Countdown_timer_Start
 172:main.c        ****     countdown_StartEx(Countdown_ISR_Handler);
 359              		.loc 1 172 0
 360 00c4 9B48     		ldr	r0, .L25+28
 361 00c6 FFF7FEFF 		bl	countdown_StartEx
 362              	.L24:
 173:main.c        ****     
 174:main.c        ****     for(;;)
 175:main.c        ****     {       
 176:main.c        ****         if(ADC_IsEndConversion(ADC_RETURN_STATUS))
 363              		.loc 1 176 0
 364 00ca 0120     		movs	r0, #1
 365 00cc FFF7FEFF 		bl	ADC_IsEndConversion
 366 00d0 0346     		mov	r3, r0
 367 00d2 002B     		cmp	r3, #0
 368 00d4 42D0     		beq	.L10
 369              	.LBB2:
 177:main.c        ****         {
 178:main.c        ****             char pressure[50];
ARM GAS  C:\Users\gding\AppData\Local\Temp\cc51JLLN.s 			page 11


 179:main.c        ****             output = ADC_GetResult32();
 370              		.loc 1 179 0
 371 00d6 FFF7FEFF 		bl	ADC_GetResult32
 372 00da 0346     		mov	r3, r0
 373 00dc 1846     		mov	r0, r3
 374 00de FFF7FEFF 		bl	__aeabi_i2f
 375 00e2 0346     		mov	r3, r0
 376 00e4 C7F8B030 		str	r3, [r7, #176]	@ float
 180:main.c        ****             
 181:main.c        ****             setCursor(0, 1);
 377              		.loc 1 181 0
 378 00e8 0020     		movs	r0, #0
 379 00ea 0121     		movs	r1, #1
 380 00ec FFF7FEFF 		bl	setCursor
 182:main.c        ****             float voltage = output * (3.32 / 4096);
 381              		.loc 1 182 0
 382 00f0 D7F8B000 		ldr	r0, [r7, #176]	@ float
 383 00f4 FFF7FEFF 		bl	__aeabi_f2d
 384 00f8 0246     		mov	r2, r0
 385 00fa 0B46     		mov	r3, r1
 386 00fc 1046     		mov	r0, r2
 387 00fe 1946     		mov	r1, r3
 388 0100 85A3     		adr	r3, .L25
 389 0102 D3E90023 		ldrd	r2, [r3]
 390 0106 FFF7FEFF 		bl	__aeabi_dmul
 391 010a 0246     		mov	r2, r0
 392 010c 0B46     		mov	r3, r1
 393 010e 1046     		mov	r0, r2
 394 0110 1946     		mov	r1, r3
 395 0112 FFF7FEFF 		bl	__aeabi_d2f
 396 0116 0346     		mov	r3, r0
 397 0118 C7F8AC30 		str	r3, [r7, #172]	@ float
 183:main.c        ****             int num = voltage;
 398              		.loc 1 183 0
 399 011c D7F8AC00 		ldr	r0, [r7, #172]	@ float
 400 0120 FFF7FEFF 		bl	__aeabi_f2iz
 401 0124 0346     		mov	r3, r0
 402 0126 C7F8A830 		str	r3, [r7, #168]
 184:main.c        ****             float temp = voltage - num;
 403              		.loc 1 184 0
 404 012a D7F8A800 		ldr	r0, [r7, #168]
 405 012e FFF7FEFF 		bl	__aeabi_i2f
 406 0132 0346     		mov	r3, r0
 407 0134 D7F8AC00 		ldr	r0, [r7, #172]	@ float
 408 0138 1946     		mov	r1, r3
 409 013a FFF7FEFF 		bl	__aeabi_fsub
 410 013e 0346     		mov	r3, r0
 411 0140 C7F8A430 		str	r3, [r7, #164]	@ float
 185:main.c        ****             int decimals = temp * 10000;
 412              		.loc 1 185 0
 413 0144 D7F8A400 		ldr	r0, [r7, #164]	@ float
 414 0148 7B49     		ldr	r1, .L25+32
 415 014a FFF7FEFF 		bl	__aeabi_fmul
 416 014e 0346     		mov	r3, r0
 417 0150 1846     		mov	r0, r3
 418 0152 FFF7FEFF 		bl	__aeabi_f2iz
 419 0156 0346     		mov	r3, r0
ARM GAS  C:\Users\gding\AppData\Local\Temp\cc51JLLN.s 			page 12


 420 0158 C7F8A030 		str	r3, [r7, #160]
 421              	.L10:
 422              	.LBE2:
 186:main.c        ****             #ifdef SD
 187:main.c        ****                 sprintf(pressure, "calculated voltage: %d.%04d --- raw adc:%d", num, decimals, (int
 188:main.c        ****                 FS_Write(fsfile, pressure, strlen(pressure));
 189:main.c        ****             #endif
 190:main.c        ****             
 191:main.c        ****         }
 192:main.c        ****         
 193:main.c        ****         /* Display Z-Acceleration */
 194:main.c        ****         //clear();
 195:main.c        ****         az = MPU6050_getAccelerationZ();
 423              		.loc 1 195 0
 424 015c FFF7FEFF 		bl	MPU6050_getAccelerationZ
 425 0160 0346     		mov	r3, r0
 426 0162 A7F89E30 		strh	r3, [r7, #158]	@ movhi
 196:main.c        ****        // I2C_LCD_print(1,0, id ,0,average);                                //print Interrupt count
 197:main.c        ****         
 198:main.c        ****         /* State Machine */
 199:main.c        ****         switch (STATE){
 427              		.loc 1 199 0
 428 0166 754B     		ldr	r3, .L25+36
 429 0168 1B78     		ldrb	r3, [r3]	@ zero_extendqisi2
 430 016a 022B     		cmp	r3, #2
 431 016c 3DD0     		beq	.L12
 432 016e 032B     		cmp	r3, #3
 433 0170 00F0BB80 		beq	.L13
 434 0174 012B     		cmp	r3, #1
 435 0176 00D0     		beq	.L14
 200:main.c        ****     
 201:main.c        ****             case WAIT_TO_LAUNCH:
 202:main.c        ****                 
 203:main.c        **** 
 204:main.c        ****                 if(wait_flag == 1){
 205:main.c        ****                     #ifdef LCD
 206:main.c        ****                         setCursor(0,0);
 207:main.c        ****                         clear();
 208:main.c        ****                         sprintf(buf, "T-minus %d seconds\n", (60 - countdown)); // countdown
 209:main.c        ****                         LCD_print(buf);
 210:main.c        ****                     #endif
 211:main.c        ****                     if(countdown == 60){
 212:main.c        ****                         STATE = DESCENDING;
 213:main.c        ****                         #ifdef LCD
 214:main.c        ****                             setCursor(0,0);
 215:main.c        ****                             clear();
 216:main.c        ****                             LCD_print("STATE: DESCENT");
 217:main.c        ****                         #endif           
 218:main.c        ****                         id=0;
 219:main.c        ****                         countdown = 39;
 220:main.c        ****                         LED2_Write(1);                                      // turn the LED off 
 221:main.c        ****                     }
 222:main.c        ****                     wait_flag = 0; 
 223:main.c        ****                 }
 224:main.c        ****                 break;
 225:main.c        ****                 
 226:main.c        ****             case DESCENDING:
ARM GAS  C:\Users\gding\AppData\Local\Temp\cc51JLLN.s 			page 13


 227:main.c        ****     
 228:main.c        ****                 if(collect_flag == 1){
 229:main.c        ****                     
 230:main.c        ****                     if (id<MA_WINDOW){
 231:main.c        ****                         sum += az;     
 232:main.c        ****                     }
 233:main.c        ****                     else if(id == MA_WINDOW){
 234:main.c        ****                         sum += az;
 235:main.c        ****                         average = sum/MA_WINDOW;                            //compute baseline aver
 236:main.c        ****                     }
 237:main.c        ****                     else{
 238:main.c        ****                         average = ComputeMA(average, MA_WINDOW, az);
 239:main.c        ****                         #ifdef SD
 240:main.c        ****                             memset(sdbuf, 0, 40);
 241:main.c        ****                             sprintf(sdbuf, "Time%ld: Z-value: %d\n", data_point, average);
 242:main.c        ****                             FS_Write(fsfile, sdbuf, strlen(sdbuf));
 243:main.c        ****                         #endif
 244:main.c        ****                     }
 245:main.c        ****                     
 246:main.c        ****           
 247:main.c        **** 
 248:main.c        ****                     if(average > BOT_THRESHOLD){
 249:main.c        ****                         LED2_Write(0);
 250:main.c        ****                         LED4_Write(1);                                          //turn LED on      
 251:main.c        ****                         STATE = LANDED;                                     //Switch to LANDED stat
 252:main.c        ****                         #ifdef LCD
 253:main.c        ****                             setCursor(0,0);
 254:main.c        ****                             clear();
 255:main.c        ****                             LCD_print("STATE: LANDED");  
 256:main.c        ****                         //I2C_LCD_print(1,0, id ,0,average);
 257:main.c        ****                         #endif
 258:main.c        ****                         #ifdef SD
 259:main.c        ****                             memset(sdbuf, 0, 40);
 260:main.c        ****                             sprintf(sdbuf, "STATE: LANDED ***********\n");
 261:main.c        ****                             FS_Write(fsfile, sdbuf, strlen(sdbuf));
 262:main.c        ****                         #endif
 263:main.c        ****                         id=0;                                                   //reset sample coun
 264:main.c        ****                         sum = 0;
 265:main.c        ****                         average = 0;                
 266:main.c        ****                     }
 267:main.c        ****                     id++;     
 268:main.c        ****                     
 269:main.c        ****                     /*if desired amount of samples have been collected, switch states*/
 270:main.c        ****                     if(id >= DATA_TIME){
 271:main.c        ****                         LED2_Write(0);                                          //turn LED off
 272:main.c        ****                                                             
 273:main.c        ****                         STATE = WAIT_TO_LAUNCH;                                //Switch to Waiting 
 274:main.c        ****                         #ifdef LCD
 275:main.c        ****                             setCursor(0,0);
 276:main.c        ****                             clear();
 277:main.c        ****                             LCD_print("STATE: WAIT");  
 278:main.c        ****                         #endif
 279:main.c        ****                         id=0;                                                  //reset sample count
 280:main.c        ****                         sum = 0;                                               //reset sum 
 281:main.c        ****                         average = 0;
 282:main.c        ****                        
 283:main.c        ****                     }
ARM GAS  C:\Users\gding\AppData\Local\Temp\cc51JLLN.s 			page 14


 284:main.c        ****                     collect_flag = 0;
 285:main.c        ****                 }
 286:main.c        ****                 break;
 287:main.c        ****                 
 288:main.c        ****             case LANDED:
 289:main.c        ****                 CyDelay(1000u);                             // delay a bit
 290:main.c        ****                 LED2_Write(1);                              // turn on other LED to indicate landed
 291:main.c        ****                 STATE = WAIT_TO_LAUNCH;
 292:main.c        ****                 #ifdef LCD
 293:main.c        ****                     setCursor(0,0);
 294:main.c        ****                     clear();
 295:main.c        ****                     LCD_print("STATE: WAIT");
 296:main.c        ****                 #endif 
 297:main.c        ****                 #ifdef SD                                   // close old file, open new one
 298:main.c        ****                     FS_FClose(fsfile);
 299:main.c        ****                     sprintf(file, "test%d.txt", ++testnum);
 300:main.c        ****                     fsfile = FS_FOpen(file, "w");
 301:main.c        ****                 #endif 
 302:main.c        ****                 break;
 303:main.c        ****                 
 304:main.c        ****             default:
 305:main.c        ****                 break;
 436              		.loc 1 305 0
 437 0178 CBE0     		b	.L17
 438              	.L14:
 204:main.c        ****                     #ifdef LCD
 439              		.loc 1 204 0
 440 017a 714B     		ldr	r3, .L25+40
 441 017c 1B78     		ldrb	r3, [r3]	@ zero_extendqisi2
 442 017e 002B     		cmp	r3, #0
 443 0180 32D0     		beq	.L15
 206:main.c        ****                         clear();
 444              		.loc 1 206 0
 445 0182 0020     		movs	r0, #0
 446 0184 0021     		movs	r1, #0
 447 0186 FFF7FEFF 		bl	setCursor
 207:main.c        ****                         sprintf(buf, "T-minus %d seconds\n", (60 - countdown)); // countdown
 448              		.loc 1 207 0
 449 018a FFF7FEFF 		bl	clear
 208:main.c        ****                         LCD_print(buf);
 450              		.loc 1 208 0
 451 018e 6D4B     		ldr	r3, .L25+44
 452 0190 1B78     		ldrb	r3, [r3]	@ zero_extendqisi2
 453 0192 C3F13C03 		rsb	r3, r3, #60
 454 0196 07F16C02 		add	r2, r7, #108
 455 019a 1046     		mov	r0, r2
 456 019c 6A49     		ldr	r1, .L25+48
 457 019e 1A46     		mov	r2, r3
 458 01a0 FFF7FEFF 		bl	sprintf
 209:main.c        ****                     #endif
 459              		.loc 1 209 0
 460 01a4 07F16C03 		add	r3, r7, #108
 461 01a8 1846     		mov	r0, r3
 462 01aa FFF7FEFF 		bl	LCD_print
 211:main.c        ****                         STATE = DESCENDING;
 463              		.loc 1 211 0
 464 01ae 654B     		ldr	r3, .L25+44
ARM GAS  C:\Users\gding\AppData\Local\Temp\cc51JLLN.s 			page 15


 465 01b0 1B78     		ldrb	r3, [r3]	@ zero_extendqisi2
 466 01b2 3C2B     		cmp	r3, #60
 467 01b4 14D1     		bne	.L16
 212:main.c        ****                         #ifdef LCD
 468              		.loc 1 212 0
 469 01b6 614B     		ldr	r3, .L25+36
 470 01b8 0222     		movs	r2, #2
 471 01ba 1A70     		strb	r2, [r3]
 214:main.c        ****                             clear();
 472              		.loc 1 214 0
 473 01bc 0020     		movs	r0, #0
 474 01be 0021     		movs	r1, #0
 475 01c0 FFF7FEFF 		bl	setCursor
 215:main.c        ****                             LCD_print("STATE: DESCENT");
 476              		.loc 1 215 0
 477 01c4 FFF7FEFF 		bl	clear
 216:main.c        ****                         #endif           
 478              		.loc 1 216 0
 479 01c8 6048     		ldr	r0, .L25+52
 480 01ca FFF7FEFF 		bl	LCD_print
 218:main.c        ****                         countdown = 39;
 481              		.loc 1 218 0
 482 01ce 604B     		ldr	r3, .L25+56
 483 01d0 0022     		movs	r2, #0
 484 01d2 1A60     		str	r2, [r3]
 219:main.c        ****                         LED2_Write(1);                                      // turn the LED off 
 485              		.loc 1 219 0
 486 01d4 5B4B     		ldr	r3, .L25+44
 487 01d6 2722     		movs	r2, #39
 488 01d8 1A70     		strb	r2, [r3]
 220:main.c        ****                     }
 489              		.loc 1 220 0
 490 01da 0120     		movs	r0, #1
 491 01dc FFF7FEFF 		bl	LED2_Write
 492              	.L16:
 222:main.c        ****                 }
 493              		.loc 1 222 0
 494 01e0 574B     		ldr	r3, .L25+40
 495 01e2 0022     		movs	r2, #0
 496 01e4 1A70     		strb	r2, [r3]
 224:main.c        ****                 
 497              		.loc 1 224 0
 498 01e6 94E0     		b	.L17
 499              	.L15:
 500 01e8 93E0     		b	.L17
 501              	.L12:
 228:main.c        ****                     
 502              		.loc 1 228 0
 503 01ea 5A4B     		ldr	r3, .L25+60
 504 01ec 1B78     		ldrb	r3, [r3]	@ zero_extendqisi2
 505 01ee 002B     		cmp	r3, #0
 506 01f0 7AD0     		beq	.L18
 230:main.c        ****                         sum += az;     
 507              		.loc 1 230 0
 508 01f2 574B     		ldr	r3, .L25+56
 509 01f4 1B68     		ldr	r3, [r3]
 510 01f6 0E2B     		cmp	r3, #14
ARM GAS  C:\Users\gding\AppData\Local\Temp\cc51JLLN.s 			page 16


 511 01f8 07DC     		bgt	.L19
 231:main.c        ****                     }
 512              		.loc 1 231 0
 513 01fa B7F99E20 		ldrsh	r2, [r7, #158]
 514 01fe 564B     		ldr	r3, .L25+64
 515 0200 1B68     		ldr	r3, [r3]
 516 0202 1344     		add	r3, r3, r2
 517 0204 544A     		ldr	r2, .L25+64
 518 0206 1360     		str	r3, [r2]
 519 0208 25E0     		b	.L20
 520              	.L19:
 233:main.c        ****                         sum += az;
 521              		.loc 1 233 0
 522 020a 514B     		ldr	r3, .L25+56
 523 020c 1B68     		ldr	r3, [r3]
 524 020e 0F2B     		cmp	r3, #15
 525 0210 13D1     		bne	.L21
 234:main.c        ****                         average = sum/MA_WINDOW;                            //compute baseline aver
 526              		.loc 1 234 0
 527 0212 B7F99E20 		ldrsh	r2, [r7, #158]
 528 0216 504B     		ldr	r3, .L25+64
 529 0218 1B68     		ldr	r3, [r3]
 530 021a 1344     		add	r3, r3, r2
 531 021c 4E4A     		ldr	r2, .L25+64
 532 021e 1360     		str	r3, [r2]
 235:main.c        ****                     }
 533              		.loc 1 235 0
 534 0220 4D4B     		ldr	r3, .L25+64
 535 0222 1B68     		ldr	r3, [r3]
 536 0224 4D4A     		ldr	r2, .L25+68
 537 0226 82FB0312 		smull	r1, r2, r2, r3
 538 022a 1A44     		add	r2, r2, r3
 539 022c D210     		asrs	r2, r2, #3
 540 022e DB17     		asrs	r3, r3, #31
 541 0230 D31A     		subs	r3, r2, r3
 542 0232 9AB2     		uxth	r2, r3
 543 0234 4A4B     		ldr	r3, .L25+72
 544 0236 1A80     		strh	r2, [r3]	@ movhi
 545 0238 0DE0     		b	.L20
 546              	.L21:
 238:main.c        ****                         #ifdef SD
 547              		.loc 1 238 0
 548 023a 494B     		ldr	r3, .L25+72
 549 023c 1B88     		ldrh	r3, [r3]
 550 023e 1AB2     		sxth	r2, r3
 551 0240 B7F99E30 		ldrsh	r3, [r7, #158]
 552 0244 1046     		mov	r0, r2
 553 0246 0F21     		movs	r1, #15
 554 0248 1A46     		mov	r2, r3
 555 024a FFF7FEFF 		bl	ComputeMA
 556 024e 0346     		mov	r3, r0
 557 0250 1A46     		mov	r2, r3
 558 0252 434B     		ldr	r3, .L25+72
 559 0254 1A80     		strh	r2, [r3]	@ movhi
 560              	.L20:
 248:main.c        ****                         LED2_Write(0);
 561              		.loc 1 248 0
ARM GAS  C:\Users\gding\AppData\Local\Temp\cc51JLLN.s 			page 17


 562 0256 424B     		ldr	r3, .L25+72
 563 0258 1B88     		ldrh	r3, [r3]
 564 025a 1BB2     		sxth	r3, r3
 565 025c 44F62062 		movw	r2, #20000
 566 0260 9342     		cmp	r3, r2
 567 0262 1ADD     		ble	.L22
 249:main.c        ****                         LED4_Write(1);                                          //turn LED on      
 568              		.loc 1 249 0
 569 0264 0020     		movs	r0, #0
 570 0266 FFF7FEFF 		bl	LED2_Write
 250:main.c        ****                         STATE = LANDED;                                     //Switch to LANDED stat
 571              		.loc 1 250 0
 572 026a 0120     		movs	r0, #1
 573 026c FFF7FEFF 		bl	LED4_Write
 251:main.c        ****                         #ifdef LCD
 574              		.loc 1 251 0
 575 0270 324B     		ldr	r3, .L25+36
 576 0272 0322     		movs	r2, #3
 577 0274 1A70     		strb	r2, [r3]
 253:main.c        ****                             clear();
 578              		.loc 1 253 0
 579 0276 0020     		movs	r0, #0
 580 0278 0021     		movs	r1, #0
 581 027a FFF7FEFF 		bl	setCursor
 254:main.c        ****                             LCD_print("STATE: LANDED");  
 582              		.loc 1 254 0
 583 027e FFF7FEFF 		bl	clear
 255:main.c        ****                         //I2C_LCD_print(1,0, id ,0,average);
 584              		.loc 1 255 0
 585 0282 3848     		ldr	r0, .L25+76
 586 0284 FFF7FEFF 		bl	LCD_print
 263:main.c        ****                         sum = 0;
 587              		.loc 1 263 0
 588 0288 314B     		ldr	r3, .L25+56
 589 028a 0022     		movs	r2, #0
 590 028c 1A60     		str	r2, [r3]
 264:main.c        ****                         average = 0;                
 591              		.loc 1 264 0
 592 028e 324B     		ldr	r3, .L25+64
 593 0290 0022     		movs	r2, #0
 594 0292 1A60     		str	r2, [r3]
 265:main.c        ****                     }
 595              		.loc 1 265 0
 596 0294 324B     		ldr	r3, .L25+72
 597 0296 0022     		movs	r2, #0
 598 0298 1A80     		strh	r2, [r3]	@ movhi
 599              	.L22:
 267:main.c        ****                     
 600              		.loc 1 267 0
 601 029a 2D4B     		ldr	r3, .L25+56
 602 029c 1B68     		ldr	r3, [r3]
 603 029e 0133     		adds	r3, r3, #1
 604 02a0 2B4A     		ldr	r2, .L25+56
 605 02a2 1360     		str	r3, [r2]
 270:main.c        ****                         LED2_Write(0);                                          //turn LED off
 606              		.loc 1 270 0
 607 02a4 2A4B     		ldr	r3, .L25+56
ARM GAS  C:\Users\gding\AppData\Local\Temp\cc51JLLN.s 			page 18


 608 02a6 1B68     		ldr	r3, [r3]
 609 02a8 41F28732 		movw	r2, #4999
 610 02ac 9342     		cmp	r3, r2
 611 02ae 17DD     		ble	.L23
 271:main.c        ****                                                             
 612              		.loc 1 271 0
 613 02b0 0020     		movs	r0, #0
 614 02b2 FFF7FEFF 		bl	LED2_Write
 273:main.c        ****                         #ifdef LCD
 615              		.loc 1 273 0
 616 02b6 214B     		ldr	r3, .L25+36
 617 02b8 0122     		movs	r2, #1
 618 02ba 1A70     		strb	r2, [r3]
 275:main.c        ****                             clear();
 619              		.loc 1 275 0
 620 02bc 0020     		movs	r0, #0
 621 02be 0021     		movs	r1, #0
 622 02c0 FFF7FEFF 		bl	setCursor
 276:main.c        ****                             LCD_print("STATE: WAIT");  
 623              		.loc 1 276 0
 624 02c4 FFF7FEFF 		bl	clear
 277:main.c        ****                         #endif
 625              		.loc 1 277 0
 626 02c8 2748     		ldr	r0, .L25+80
 627 02ca FFF7FEFF 		bl	LCD_print
 279:main.c        ****                         sum = 0;                                               //reset sum 
 628              		.loc 1 279 0
 629 02ce 204B     		ldr	r3, .L25+56
 630 02d0 0022     		movs	r2, #0
 631 02d2 1A60     		str	r2, [r3]
 280:main.c        ****                         average = 0;
 632              		.loc 1 280 0
 633 02d4 204B     		ldr	r3, .L25+64
 634 02d6 0022     		movs	r2, #0
 635 02d8 1A60     		str	r2, [r3]
 281:main.c        ****                        
 636              		.loc 1 281 0
 637 02da 214B     		ldr	r3, .L25+72
 638 02dc 0022     		movs	r2, #0
 639 02de 1A80     		strh	r2, [r3]	@ movhi
 640              	.L23:
 284:main.c        ****                 }
 641              		.loc 1 284 0
 642 02e0 1C4B     		ldr	r3, .L25+60
 643 02e2 0022     		movs	r2, #0
 644 02e4 1A70     		strb	r2, [r3]
 286:main.c        ****                 
 645              		.loc 1 286 0
 646 02e6 14E0     		b	.L17
 647              	.L18:
 286:main.c        ****                 
 648              		.loc 1 286 0 is_stmt 0 discriminator 2
 649 02e8 13E0     		b	.L17
 650              	.L13:
 289:main.c        ****                 LED2_Write(1);                              // turn on other LED to indicate landed
 651              		.loc 1 289 0 is_stmt 1
 652 02ea 4FF47A70 		mov	r0, #1000
ARM GAS  C:\Users\gding\AppData\Local\Temp\cc51JLLN.s 			page 19


 653 02ee FFF7FEFF 		bl	CyDelay
 290:main.c        ****                 STATE = WAIT_TO_LAUNCH;
 654              		.loc 1 290 0
 655 02f2 0120     		movs	r0, #1
 656 02f4 FFF7FEFF 		bl	LED2_Write
 291:main.c        ****                 #ifdef LCD
 657              		.loc 1 291 0
 658 02f8 104B     		ldr	r3, .L25+36
 659 02fa 0122     		movs	r2, #1
 660 02fc 1A70     		strb	r2, [r3]
 293:main.c        ****                     clear();
 661              		.loc 1 293 0
 662 02fe 0020     		movs	r0, #0
 663 0300 0021     		movs	r1, #0
 664 0302 FFF7FEFF 		bl	setCursor
 294:main.c        ****                     LCD_print("STATE: WAIT");
 665              		.loc 1 294 0
 666 0306 FFF7FEFF 		bl	clear
 295:main.c        ****                 #endif 
 667              		.loc 1 295 0
 668 030a 1748     		ldr	r0, .L25+80
 669 030c FFF7FEFF 		bl	LCD_print
 302:main.c        ****                 
 670              		.loc 1 302 0
 671 0310 00BF     		nop
 672              	.L17:
 306:main.c        ****         
 307:main.c        ****         
 308:main.c        ****         }
 309:main.c        ****         
 310:main.c        ****     }
 673              		.loc 1 310 0 discriminator 1
 674 0312 DAE6     		b	.L24
 675              	.L26:
 676 0314 AFF30080 		.align	3
 677              	.L25:
 678 0318 8FC2F528 		.word	687194767
 679 031c 5C8F4A3F 		.word	1061850972
 680 0320 5C000000 		.word	.LC0
 681 0324 00000000 		.word	Sample_ISR_Handler
 682 0328 00000000 		.word	Addr
 683 032c 00000000 		.word	.LC1
 684 0330 10000000 		.word	.LC2
 685 0334 00000000 		.word	Countdown_ISR_Handler
 686 0338 00401C46 		.word	1176256512
 687 033c 00000000 		.word	STATE
 688 0340 00000000 		.word	wait_flag
 689 0344 00000000 		.word	countdown
 690 0348 1C000000 		.word	.LC3
 691 034c 30000000 		.word	.LC4
 692 0350 00000000 		.word	id
 693 0354 00000000 		.word	collect_flag
 694 0358 00000000 		.word	sum
 695 035c 89888888 		.word	-2004318071
 696 0360 00000000 		.word	average
 697 0364 40000000 		.word	.LC5
 698 0368 50000000 		.word	.LC6
ARM GAS  C:\Users\gding\AppData\Local\Temp\cc51JLLN.s 			page 20


 699              		.cfi_endproc
 700              	.LFE65:
 701              		.size	main, .-main
 702 036c AFF30080 		.text
 703              	.Letext0:
 704              		.file 2 "c:\\program files (x86)\\cypress\\psoc creator\\4.0\\psoc creator\\import\\gnu\\arm\\4.9.
 705              		.file 3 "c:\\program files (x86)\\cypress\\psoc creator\\4.0\\psoc creator\\import\\gnu\\arm\\4.9.
 706              		.file 4 "Generated_Source\\PSoC5/cytypes.h"
 707              		.file 5 ".\\emFile_V322c\\emFile_V322c\\Code\\Include\\PSoC5/FS_Types.h"
 708              		.file 6 "Generated_Source\\PSoC5/core_cm3.h"
 709              		.file 7 "./mpu6050.h"